target datalayout = "e-m:e-p270:32:32-p271:32:32-p272:64:64-i64:64-i128:128-f80:128-n8:16:32:64-S128"
target triple = "x86_64-unknown-linux-gnu"

; Function Attrs: nounwind uwtable
define hidden i64 @bn_mul_add_words(ptr noundef %rp, ptr noundef %ap, i32 noundef %num, i64 noundef %w) #0 {
entry:
  %retval = alloca i64, align 8
  %rp.addr = alloca ptr, align 8
  %ap.addr = alloca ptr, align 8
  %num.addr = alloca i32, align 4
  %w.addr = alloca i64, align 8
  %c1 = alloca i64, align 8
  %high = alloca i64, align 8
  %low = alloca i64, align 8
  %high6 = alloca i64, align 8
  %low7 = alloca i64, align 8
  %high16 = alloca i64, align 8
  %low17 = alloca i64, align 8
  %high26 = alloca i64, align 8
  %low27 = alloca i64, align 8
  %high39 = alloca i64, align 8
  %low40 = alloca i64, align 8
  %high52 = alloca i64, align 8
  %low53 = alloca i64, align 8
  %high66 = alloca i64, align 8
  %low67 = alloca i64, align 8
  store ptr %rp, ptr %rp.addr, align 8
  store ptr %ap, ptr %ap.addr, align 8
  store i32 %num, ptr %num.addr, align 4
  store i64 %w, ptr %w.addr, align 8
  store i64 0, ptr %c1, align 8
  %0 = load i32, ptr %num.addr, align 4
  %cmp = icmp sle i32 %0, 0
  br i1 %cmp, label %if.then, label %if.end

if.then:                                          ; preds = %entry
  %1 = load i64, ptr %c1, align 8
  store i64 %1, ptr %retval, align 8
  br label %return

if.end:                                           ; preds = %entry
  br label %while.cond

while.cond:                                       ; preds = %do.end34, %if.end
  %2 = load i32, ptr %num.addr, align 4
  %and = and i32 %2, -4
  %tobool = icmp ne i32 %and, 0
  br i1 %tobool, label %while.body, label %while.end

while.body:                                       ; preds = %while.cond
  br label %do.body

do.body:                                          ; preds = %while.body
  %3 = load i64, ptr %w.addr, align 8
  %4 = load ptr, ptr %ap.addr, align 8
  %arrayidx = getelementptr inbounds i64, ptr %4, i64 0
  %5 = call { i64, i64 } asm "mulq $3", "={ax},={dx},{ax},*m,~{cc},~{dirflag},~{fpsr},~{flags}"(i64 %3, ptr elementtype(i64) %arrayidx) #1, !srcloc !7
  %asmresult = extractvalue { i64, i64 } %5, 0
  %asmresult1 = extractvalue { i64, i64 } %5, 1
  store i64 %asmresult, ptr %low, align 8
  store i64 %asmresult1, ptr %high, align 8
  %6 = load i64, ptr %c1, align 8
  %7 = load i64, ptr %high, align 8
  %8 = load i64, ptr %low, align 8
  %9 = call { i64, i64 } asm "addq $2,$0; adcq $3,$1", "=r,={dx},{ax},imr,0,1,~{cc},~{dirflag},~{fpsr},~{flags}"(i64 %8, i32 0, i64 %6, i64 %7) #1, !srcloc !8
  %asmresult2 = extractvalue { i64, i64 } %9, 0
  %asmresult3 = extractvalue { i64, i64 } %9, 1
  store i64 %asmresult2, ptr %c1, align 8
  store i64 %asmresult3, ptr %high, align 8
  %10 = load ptr, ptr %rp.addr, align 8
  %arrayidx4 = getelementptr inbounds i64, ptr %10, i64 0
  %11 = load i64, ptr %high, align 8
  %12 = load i64, ptr %c1, align 8
  %13 = call i64 asm "addq $2,$0; adcq $3,$1", "=*m,={dx},r,imr,*m,1,~{cc},~{dirflag},~{fpsr},~{flags}"(ptr elementtype(i64) %arrayidx4, i64 %12, i32 0, ptr elementtype(i64) %arrayidx4, i64 %11) #2, !srcloc !9
  store i64 %13, ptr %high, align 8
  %14 = load i64, ptr %high, align 8
  store i64 %14, ptr %c1, align 8
  br label %do.end

do.end:                                           ; preds = %do.body
  br label %do.body5

do.body5:                                         ; preds = %do.end
  %15 = load i64, ptr %w.addr, align 8
  %16 = load ptr, ptr %ap.addr, align 8
  %arrayidx8 = getelementptr inbounds i64, ptr %16, i64 1
  %17 = call { i64, i64 } asm "mulq $3", "={ax},={dx},{ax},*m,~{cc},~{dirflag},~{fpsr},~{flags}"(i64 %15, ptr elementtype(i64) %arrayidx8) #1, !srcloc !10
  %asmresult9 = extractvalue { i64, i64 } %17, 0
  %asmresult10 = extractvalue { i64, i64 } %17, 1
  store i64 %asmresult9, ptr %low7, align 8
  store i64 %asmresult10, ptr %high6, align 8
  %18 = load i64, ptr %c1, align 8
  %19 = load i64, ptr %high6, align 8
  %20 = load i64, ptr %low7, align 8
  %21 = call { i64, i64 } asm "addq $2,$0; adcq $3,$1", "=r,={dx},{ax},imr,0,1,~{cc},~{dirflag},~{fpsr},~{flags}"(i64 %20, i32 0, i64 %18, i64 %19) #1, !srcloc !11
  %asmresult11 = extractvalue { i64, i64 } %21, 0
  %asmresult12 = extractvalue { i64, i64 } %21, 1
  store i64 %asmresult11, ptr %c1, align 8
  store i64 %asmresult12, ptr %high6, align 8
  %22 = load ptr, ptr %rp.addr, align 8
  %arrayidx13 = getelementptr inbounds i64, ptr %22, i64 1
  %23 = load i64, ptr %high6, align 8
  %24 = load i64, ptr %c1, align 8
  %25 = call i64 asm "addq $2,$0; adcq $3,$1", "=*m,={dx},r,imr,*m,1,~{cc},~{dirflag},~{fpsr},~{flags}"(ptr elementtype(i64) %arrayidx13, i64 %24, i32 0, ptr elementtype(i64) %arrayidx13, i64 %23) #2, !srcloc !12
  store i64 %25, ptr %high6, align 8
  %26 = load i64, ptr %high6, align 8
  store i64 %26, ptr %c1, align 8
  br label %do.end14

do.end14:                                         ; preds = %do.body5
  br label %do.body15

do.body15:                                        ; preds = %do.end14
  %27 = load i64, ptr %w.addr, align 8
  %28 = load ptr, ptr %ap.addr, align 8
  %arrayidx18 = getelementptr inbounds i64, ptr %28, i64 2
  %29 = call { i64, i64 } asm "mulq $3", "={ax},={dx},{ax},*m,~{cc},~{dirflag},~{fpsr},~{flags}"(i64 %27, ptr elementtype(i64) %arrayidx18) #1, !srcloc !13
  %asmresult19 = extractvalue { i64, i64 } %29, 0
  %asmresult20 = extractvalue { i64, i64 } %29, 1
  store i64 %asmresult19, ptr %low17, align 8
  store i64 %asmresult20, ptr %high16, align 8
  %30 = load i64, ptr %c1, align 8
  %31 = load i64, ptr %high16, align 8
  %32 = load i64, ptr %low17, align 8
  %33 = call { i64, i64 } asm "addq $2,$0; adcq $3,$1", "=r,={dx},{ax},imr,0,1,~{cc},~{dirflag},~{fpsr},~{flags}"(i64 %32, i32 0, i64 %30, i64 %31) #1, !srcloc !14
  %asmresult21 = extractvalue { i64, i64 } %33, 0
  %asmresult22 = extractvalue { i64, i64 } %33, 1
  store i64 %asmresult21, ptr %c1, align 8
  store i64 %asmresult22, ptr %high16, align 8
  %34 = load ptr, ptr %rp.addr, align 8
  %arrayidx23 = getelementptr inbounds i64, ptr %34, i64 2
  %35 = load i64, ptr %high16, align 8
  %36 = load i64, ptr %c1, align 8
  %37 = call i64 asm "addq $2,$0; adcq $3,$1", "=*m,={dx},r,imr,*m,1,~{cc},~{dirflag},~{fpsr},~{flags}"(ptr elementtype(i64) %arrayidx23, i64 %36, i32 0, ptr elementtype(i64) %arrayidx23, i64 %35) #2, !srcloc !15
  store i64 %37, ptr %high16, align 8
  %38 = load i64, ptr %high16, align 8
  store i64 %38, ptr %c1, align 8
  br label %do.end24

do.end24:                                         ; preds = %do.body15
  br label %do.body25

do.body25:                                        ; preds = %do.end24
  %39 = load i64, ptr %w.addr, align 8
  %40 = load ptr, ptr %ap.addr, align 8
  %arrayidx28 = getelementptr inbounds i64, ptr %40, i64 3
  %41 = call { i64, i64 } asm "mulq $3", "={ax},={dx},{ax},*m,~{cc},~{dirflag},~{fpsr},~{flags}"(i64 %39, ptr elementtype(i64) %arrayidx28) #1, !srcloc !16
  %asmresult29 = extractvalue { i64, i64 } %41, 0
  %asmresult30 = extractvalue { i64, i64 } %41, 1
  store i64 %asmresult29, ptr %low27, align 8
  store i64 %asmresult30, ptr %high26, align 8
  %42 = load i64, ptr %c1, align 8
  %43 = load i64, ptr %high26, align 8
  %44 = load i64, ptr %low27, align 8
  %45 = call { i64, i64 } asm "addq $2,$0; adcq $3,$1", "=r,={dx},{ax},imr,0,1,~{cc},~{dirflag},~{fpsr},~{flags}"(i64 %44, i32 0, i64 %42, i64 %43) #1, !srcloc !17
  %asmresult31 = extractvalue { i64, i64 } %45, 0
  %asmresult32 = extractvalue { i64, i64 } %45, 1
  store i64 %asmresult31, ptr %c1, align 8
  store i64 %asmresult32, ptr %high26, align 8
  %46 = load ptr, ptr %rp.addr, align 8
  %arrayidx33 = getelementptr inbounds i64, ptr %46, i64 3
  %47 = load i64, ptr %high26, align 8
  %48 = load i64, ptr %c1, align 8
  %49 = call i64 asm "addq $2,$0; adcq $3,$1", "=*m,={dx},r,imr,*m,1,~{cc},~{dirflag},~{fpsr},~{flags}"(ptr elementtype(i64) %arrayidx33, i64 %48, i32 0, ptr elementtype(i64) %arrayidx33, i64 %47) #2, !srcloc !18
  store i64 %49, ptr %high26, align 8
  %50 = load i64, ptr %high26, align 8
  store i64 %50, ptr %c1, align 8
  br label %do.end34

do.end34:                                         ; preds = %do.body25
  %51 = load ptr, ptr %ap.addr, align 8
  %add.ptr = getelementptr inbounds i64, ptr %51, i64 4
  store ptr %add.ptr, ptr %ap.addr, align 8
  %52 = load ptr, ptr %rp.addr, align 8
  %add.ptr35 = getelementptr inbounds i64, ptr %52, i64 4
  store ptr %add.ptr35, ptr %rp.addr, align 8
  %53 = load i32, ptr %num.addr, align 4
  %sub = sub nsw i32 %53, 4
  store i32 %sub, ptr %num.addr, align 4
  br label %while.cond, !llvm.loop !19

while.end:                                        ; preds = %while.cond
  %54 = load i32, ptr %num.addr, align 4
  %tobool36 = icmp ne i32 %54, 0
  br i1 %tobool36, label %if.then37, label %if.end75

if.then37:                                        ; preds = %while.end
  br label %do.body38

do.body38:                                        ; preds = %if.then37
  %55 = load i64, ptr %w.addr, align 8
  %56 = load ptr, ptr %ap.addr, align 8
  %arrayidx41 = getelementptr inbounds i64, ptr %56, i64 0
  %57 = call { i64, i64 } asm "mulq $3", "={ax},={dx},{ax},*m,~{cc},~{dirflag},~{fpsr},~{flags}"(i64 %55, ptr elementtype(i64) %arrayidx41) #1, !srcloc !21
  %asmresult42 = extractvalue { i64, i64 } %57, 0
  %asmresult43 = extractvalue { i64, i64 } %57, 1
  store i64 %asmresult42, ptr %low40, align 8
  store i64 %asmresult43, ptr %high39, align 8
  %58 = load i64, ptr %c1, align 8
  %59 = load i64, ptr %high39, align 8
  %60 = load i64, ptr %low40, align 8
  %61 = call { i64, i64 } asm "addq $2,$0; adcq $3,$1", "=r,={dx},{ax},imr,0,1,~{cc},~{dirflag},~{fpsr},~{flags}"(i64 %60, i32 0, i64 %58, i64 %59) #1, !srcloc !22
  %asmresult44 = extractvalue { i64, i64 } %61, 0
  %asmresult45 = extractvalue { i64, i64 } %61, 1
  store i64 %asmresult44, ptr %c1, align 8
  store i64 %asmresult45, ptr %high39, align 8
  %62 = load ptr, ptr %rp.addr, align 8
  %arrayidx46 = getelementptr inbounds i64, ptr %62, i64 0
  %63 = load i64, ptr %high39, align 8
  %64 = load i64, ptr %c1, align 8
  %65 = call i64 asm "addq $2,$0; adcq $3,$1", "=*m,={dx},r,imr,*m,1,~{cc},~{dirflag},~{fpsr},~{flags}"(ptr elementtype(i64) %arrayidx46, i64 %64, i32 0, ptr elementtype(i64) %arrayidx46, i64 %63) #2, !srcloc !23
  store i64 %65, ptr %high39, align 8
  %66 = load i64, ptr %high39, align 8
  store i64 %66, ptr %c1, align 8
  br label %do.end47

do.end47:                                         ; preds = %do.body38
  %67 = load i32, ptr %num.addr, align 4
  %dec = add nsw i32 %67, -1
  store i32 %dec, ptr %num.addr, align 4
  %cmp48 = icmp eq i32 %dec, 0
  br i1 %cmp48, label %if.then49, label %if.end50

if.then49:                                        ; preds = %do.end47
  %68 = load i64, ptr %c1, align 8
  store i64 %68, ptr %retval, align 8
  br label %return

if.end50:                                         ; preds = %do.end47
  br label %do.body51

do.body51:                                        ; preds = %if.end50
  %69 = load i64, ptr %w.addr, align 8
  %70 = load ptr, ptr %ap.addr, align 8
  %arrayidx54 = getelementptr inbounds i64, ptr %70, i64 1
  %71 = call { i64, i64 } asm "mulq $3", "={ax},={dx},{ax},*m,~{cc},~{dirflag},~{fpsr},~{flags}"(i64 %69, ptr elementtype(i64) %arrayidx54) #1, !srcloc !24
  %asmresult55 = extractvalue { i64, i64 } %71, 0
  %asmresult56 = extractvalue { i64, i64 } %71, 1
  store i64 %asmresult55, ptr %low53, align 8
  store i64 %asmresult56, ptr %high52, align 8
  %72 = load i64, ptr %c1, align 8
  %73 = load i64, ptr %high52, align 8
  %74 = load i64, ptr %low53, align 8
  %75 = call { i64, i64 } asm "addq $2,$0; adcq $3,$1", "=r,={dx},{ax},imr,0,1,~{cc},~{dirflag},~{fpsr},~{flags}"(i64 %74, i32 0, i64 %72, i64 %73) #1, !srcloc !25
  %asmresult57 = extractvalue { i64, i64 } %75, 0
  %asmresult58 = extractvalue { i64, i64 } %75, 1
  store i64 %asmresult57, ptr %c1, align 8
  store i64 %asmresult58, ptr %high52, align 8
  %76 = load ptr, ptr %rp.addr, align 8
  %arrayidx59 = getelementptr inbounds i64, ptr %76, i64 1
  %77 = load i64, ptr %high52, align 8
  %78 = load i64, ptr %c1, align 8
  %79 = call i64 asm "addq $2,$0; adcq $3,$1", "=*m,={dx},r,imr,*m,1,~{cc},~{dirflag},~{fpsr},~{flags}"(ptr elementtype(i64) %arrayidx59, i64 %78, i32 0, ptr elementtype(i64) %arrayidx59, i64 %77) #2, !srcloc !26
  store i64 %79, ptr %high52, align 8
  %80 = load i64, ptr %high52, align 8
  store i64 %80, ptr %c1, align 8
  br label %do.end60

do.end60:                                         ; preds = %do.body51
  %81 = load i32, ptr %num.addr, align 4
  %dec61 = add nsw i32 %81, -1
  store i32 %dec61, ptr %num.addr, align 4
  %cmp62 = icmp eq i32 %dec61, 0
  br i1 %cmp62, label %if.then63, label %if.end64

if.then63:                                        ; preds = %do.end60
  %82 = load i64, ptr %c1, align 8
  store i64 %82, ptr %retval, align 8
  br label %return

if.end64:                                         ; preds = %do.end60
  br label %do.body65

do.body65:                                        ; preds = %if.end64
  %83 = load i64, ptr %w.addr, align 8
  %84 = load ptr, ptr %ap.addr, align 8
  %arrayidx68 = getelementptr inbounds i64, ptr %84, i64 2
  %85 = call { i64, i64 } asm "mulq $3", "={ax},={dx},{ax},*m,~{cc},~{dirflag},~{fpsr},~{flags}"(i64 %83, ptr elementtype(i64) %arrayidx68) #1, !srcloc !27
  %asmresult69 = extractvalue { i64, i64 } %85, 0
  %asmresult70 = extractvalue { i64, i64 } %85, 1
  store i64 %asmresult69, ptr %low67, align 8
  store i64 %asmresult70, ptr %high66, align 8
  %86 = load i64, ptr %c1, align 8
  %87 = load i64, ptr %high66, align 8
  %88 = load i64, ptr %low67, align 8
  %89 = call { i64, i64 } asm "addq $2,$0; adcq $3,$1", "=r,={dx},{ax},imr,0,1,~{cc},~{dirflag},~{fpsr},~{flags}"(i64 %88, i32 0, i64 %86, i64 %87) #1, !srcloc !28
  %asmresult71 = extractvalue { i64, i64 } %89, 0
  %asmresult72 = extractvalue { i64, i64 } %89, 1
  store i64 %asmresult71, ptr %c1, align 8
  store i64 %asmresult72, ptr %high66, align 8
  %90 = load ptr, ptr %rp.addr, align 8
  %arrayidx73 = getelementptr inbounds i64, ptr %90, i64 2
  %91 = load i64, ptr %high66, align 8
  %92 = load i64, ptr %c1, align 8
  %93 = call i64 asm "addq $2,$0; adcq $3,$1", "=*m,={dx},r,imr,*m,1,~{cc},~{dirflag},~{fpsr},~{flags}"(ptr elementtype(i64) %arrayidx73, i64 %92, i32 0, ptr elementtype(i64) %arrayidx73, i64 %91) #2, !srcloc !29
  store i64 %93, ptr %high66, align 8
  %94 = load i64, ptr %high66, align 8
  store i64 %94, ptr %c1, align 8
  br label %do.end74

do.end74:                                         ; preds = %do.body65
  %95 = load i64, ptr %c1, align 8
  store i64 %95, ptr %retval, align 8
  br label %return

if.end75:                                         ; preds = %while.end
  %96 = load i64, ptr %c1, align 8
  store i64 %96, ptr %retval, align 8
  br label %return

return:                                           ; preds = %if.end75, %do.end74, %if.then63, %if.then49, %if.then
  %97 = load i64, ptr %retval, align 8
  ret i64 %97
}