; Function Attrs: nounwind uwtable
define hidden i64 @bn_mul_add_words(ptr noundef %rp, ptr noundef %ap, i32 noundef %num, i64 noundef %w) local_unnamed_addr #0 {
entry:
  %cmp = icmp slt i32 %num, 1
  br i1 %cmp, label %return, label %while.cond.preheader

while.cond.preheader:                             ; preds = %entry
  %tobool.not58 = icmp samesign ult i32 %num, 4
  br i1 %tobool.not58, label %do.body38, label %do.body

do.body:                                          ; preds = %while.cond.preheader, %do.body
  %rp.addr.062 = phi ptr [ %add.ptr35, %do.body ], [ %rp, %while.cond.preheader ]
  %ap.addr.061 = phi ptr [ %add.ptr, %do.body ], [ %ap, %while.cond.preheader ]
  %num.addr.060 = phi i32 [ %sub, %do.body ], [ %num, %while.cond.preheader ]
  %c1.059 = phi i64 [ %11, %do.body ], [ 0, %while.cond.preheader ]
  %0 = tail call { i64, i64 } asm "mulq $3", "={ax},={dx},{ax},*m,~{cc},~{dirflag},~{fpsr},~{flags}"(i64 %w, ptr elementtype(i64) %ap.addr.061) #3, !srcloc !7
  %asmresult = extractvalue { i64, i64 } %0, 0
  %asmresult1 = extractvalue { i64, i64 } %0, 1
  %1 = tail call { i64, i64 } asm "addq $2,$0; adcq $3,$1", "=r,={dx},{ax},imr,0,1,~{cc},~{dirflag},~{fpsr},~{flags}"(i64 %asmresult, i32 0, i64 %c1.059, i64 %asmresult1) #3, !srcloc !8
  %asmresult2 = extractvalue { i64, i64 } %1, 0
  %asmresult3 = extractvalue { i64, i64 } %1, 1
  %2 = tail call i64 asm "addq $2,$0; adcq $3,$1", "=*m,={dx},r,imr,*m,1,~{cc},~{dirflag},~{fpsr},~{flags}"(ptr elementtype(i64) %rp.addr.062, i64 %asmresult2, i32 0, ptr elementtype(i64) %rp.addr.062, i64 %asmresult3) #4, !srcloc !9
  %arrayidx8 = getelementptr inbounds nuw i8, ptr %ap.addr.061, i64 8
  %3 = tail call { i64, i64 } asm "mulq $3", "={ax},={dx},{ax},*m,~{cc},~{dirflag},~{fpsr},~{flags}"(i64 %w, ptr nonnull elementtype(i64) %arrayidx8) #3, !srcloc !10
  %asmresult9 = extractvalue { i64, i64 } %3, 0
  %asmresult10 = extractvalue { i64, i64 } %3, 1
  %4 = tail call { i64, i64 } asm "addq $2,$0; adcq $3,$1", "=r,={dx},{ax},imr,0,1,~{cc},~{dirflag},~{fpsr},~{flags}"(i64 %asmresult9, i32 0, i64 %2, i64 %asmresult10) #3, !srcloc !11
  %asmresult11 = extractvalue { i64, i64 } %4, 0
  %asmresult12 = extractvalue { i64, i64 } %4, 1
  %arrayidx13 = getelementptr inbounds nuw i8, ptr %rp.addr.062, i64 8
  %5 = tail call i64 asm "addq $2,$0; adcq $3,$1", "=*m,={dx},r,imr,*m,1,~{cc},~{dirflag},~{fpsr},~{flags}"(ptr nonnull elementtype(i64) %arrayidx13, i64 %asmresult11, i32 0, ptr nonnull elementtype(i64) %arrayidx13, i64 %asmresult12) #4, !srcloc !12
  %arrayidx18 = getelementptr inbounds nuw i8, ptr %ap.addr.061, i64 16
  %6 = tail call { i64, i64 } asm "mulq $3", "={ax},={dx},{ax},*m,~{cc},~{dirflag},~{fpsr},~{flags}"(i64 %w, ptr nonnull elementtype(i64) %arrayidx18) #3, !srcloc !13
  %asmresult19 = extractvalue { i64, i64 } %6, 0
  %asmresult20 = extractvalue { i64, i64 } %6, 1
  %7 = tail call { i64, i64 } asm "addq $2,$0; adcq $3,$1", "=r,={dx},{ax},imr,0,1,~{cc},~{dirflag},~{fpsr},~{flags}"(i64 %asmresult19, i32 0, i64 %5, i64 %asmresult20) #3, !srcloc !14
  %asmresult21 = extractvalue { i64, i64 } %7, 0
  %asmresult22 = extractvalue { i64, i64 } %7, 1
  %arrayidx23 = getelementptr inbounds nuw i8, ptr %rp.addr.062, i64 16
  %8 = tail call i64 asm "addq $2,$0; adcq $3,$1", "=*m,={dx},r,imr,*m,1,~{cc},~{dirflag},~{fpsr},~{flags}"(ptr nonnull elementtype(i64) %arrayidx23, i64 %asmresult21, i32 0, ptr nonnull elementtype(i64) %arrayidx23, i64 %asmresult22) #4, !srcloc !15
  %arrayidx28 = getelementptr inbounds nuw i8, ptr %ap.addr.061, i64 24
  %9 = tail call { i64, i64 } asm "mulq $3", "={ax},={dx},{ax},*m,~{cc},~{dirflag},~{fpsr},~{flags}"(i64 %w, ptr nonnull elementtype(i64) %arrayidx28) #3, !srcloc !16
  %asmresult29 = extractvalue { i64, i64 } %9, 0
  %asmresult30 = extractvalue { i64, i64 } %9, 1
  %10 = tail call { i64, i64 } asm "addq $2,$0; adcq $3,$1", "=r,={dx},{ax},imr,0,1,~{cc},~{dirflag},~{fpsr},~{flags}"(i64 %asmresult29, i32 0, i64 %8, i64 %asmresult30) #3, !srcloc !17
  %asmresult31 = extractvalue { i64, i64 } %10, 0
  %asmresult32 = extractvalue { i64, i64 } %10, 1
  %arrayidx33 = getelementptr inbounds nuw i8, ptr %rp.addr.062, i64 24
  %11 = tail call i64 asm "addq $2,$0; adcq $3,$1", "=*m,={dx},r,imr,*m,1,~{cc},~{dirflag},~{fpsr},~{flags}"(ptr nonnull elementtype(i64) %arrayidx33, i64 %asmresult31, i32 0, ptr nonnull elementtype(i64) %arrayidx33, i64 %asmresult32) #4, !srcloc !18
  %add.ptr = getelementptr inbounds nuw i8, ptr %ap.addr.061, i64 32
  %add.ptr35 = getelementptr inbounds nuw i8, ptr %rp.addr.062, i64 32
  %sub = add nsw i32 %num.addr.060, -4
  %tobool.not = icmp ult i32 %sub, 4
  br i1 %tobool.not, label %while.end, label %do.body, !llvm.loop !19

while.end:                                        ; preds = %do.body
  %tobool36.not = icmp eq i32 %sub, 0
  br i1 %tobool36.not, label %return, label %do.body38

do.body38:                                        ; preds = %while.cond.preheader, %while.end
  %rp.addr.0.lcssa74 = phi ptr [ %add.ptr35, %while.end ], [ %rp, %while.cond.preheader ]
  %ap.addr.0.lcssa73 = phi ptr [ %add.ptr, %while.end ], [ %ap, %while.cond.preheader ]
  %num.addr.0.lcssa72 = phi i32 [ %sub, %while.end ], [ %num, %while.cond.preheader ]
  %c1.0.lcssa71 = phi i64 [ %11, %while.end ], [ 0, %while.cond.preheader ]
  %12 = tail call { i64, i64 } asm "mulq $3", "={ax},={dx},{ax},*m,~{cc},~{dirflag},~{fpsr},~{flags}"(i64 %w, ptr elementtype(i64) %ap.addr.0.lcssa73) #3, !srcloc !21
  %asmresult42 = extractvalue { i64, i64 } %12, 0
  %asmresult43 = extractvalue { i64, i64 } %12, 1
  %13 = tail call { i64, i64 } asm "addq $2,$0; adcq $3,$1", "=r,={dx},{ax},imr,0,1,~{cc},~{dirflag},~{fpsr},~{flags}"(i64 %asmresult42, i32 0, i64 %c1.0.lcssa71, i64 %asmresult43) #3, !srcloc !22
  %asmresult44 = extractvalue { i64, i64 } %13, 0
  %asmresult45 = extractvalue { i64, i64 } %13, 1
  %14 = tail call i64 asm "addq $2,$0; adcq $3,$1", "=*m,={dx},r,imr,*m,1,~{cc},~{dirflag},~{fpsr},~{flags}"(ptr elementtype(i64) %rp.addr.0.lcssa74, i64 %asmresult44, i32 0, ptr elementtype(i64) %rp.addr.0.lcssa74, i64 %asmresult45) #4, !srcloc !23
  %cmp48 = icmp eq i32 %num.addr.0.lcssa72, 1
  br i1 %cmp48, label %return, label %do.body51

do.body51:                                        ; preds = %do.body38
  %arrayidx54 = getelementptr inbounds nuw i8, ptr %ap.addr.0.lcssa73, i64 8
  %15 = tail call { i64, i64 } asm "mulq $3", "={ax},={dx},{ax},*m,~{cc},~{dirflag},~{fpsr},~{flags}"(i64 %w, ptr nonnull elementtype(i64) %arrayidx54) #3, !srcloc !24
  %asmresult55 = extractvalue { i64, i64 } %15, 0
  %asmresult56 = extractvalue { i64, i64 } %15, 1
  %16 = tail call { i64, i64 } asm "addq $2,$0; adcq $3,$1", "=r,={dx},{ax},imr,0,1,~{cc},~{dirflag},~{fpsr},~{flags}"(i64 %asmresult55, i32 0, i64 %14, i64 %asmresult56) #3, !srcloc !25
  %asmresult57 = extractvalue { i64, i64 } %16, 0
  %asmresult58 = extractvalue { i64, i64 } %16, 1
  %arrayidx59 = getelementptr inbounds nuw i8, ptr %rp.addr.0.lcssa74, i64 8
  %17 = tail call i64 asm "addq $2,$0; adcq $3,$1", "=*m,={dx},r,imr,*m,1,~{cc},~{dirflag},~{fpsr},~{flags}"(ptr nonnull elementtype(i64) %arrayidx59, i64 %asmresult57, i32 0, ptr nonnull elementtype(i64) %arrayidx59, i64 %asmresult58) #4, !srcloc !26
  %cmp62 = icmp eq i32 %num.addr.0.lcssa72, 2
  br i1 %cmp62, label %return, label %do.body65

do.body65:                                        ; preds = %do.body51
  %arrayidx68 = getelementptr inbounds nuw i8, ptr %ap.addr.0.lcssa73, i64 16
  %18 = tail call { i64, i64 } asm "mulq $3", "={ax},={dx},{ax},*m,~{cc},~{dirflag},~{fpsr},~{flags}"(i64 %w, ptr nonnull elementtype(i64) %arrayidx68) #3, !srcloc !27
  %asmresult69 = extractvalue { i64, i64 } %18, 0
  %asmresult70 = extractvalue { i64, i64 } %18, 1
  %19 = tail call { i64, i64 } asm "addq $2,$0; adcq $3,$1", "=r,={dx},{ax},imr,0,1,~{cc},~{dirflag},~{fpsr},~{flags}"(i64 %asmresult69, i32 0, i64 %17, i64 %asmresult70) #3, !srcloc !28
  %asmresult71 = extractvalue { i64, i64 } %19, 0
  %asmresult72 = extractvalue { i64, i64 } %19, 1
  %arrayidx73 = getelementptr inbounds nuw i8, ptr %rp.addr.0.lcssa74, i64 16
  %20 = tail call i64 asm "addq $2,$0; adcq $3,$1", "=*m,={dx},r,imr,*m,1,~{cc},~{dirflag},~{fpsr},~{flags}"(ptr nonnull elementtype(i64) %arrayidx73, i64 %asmresult71, i32 0, ptr nonnull elementtype(i64) %arrayidx73, i64 %asmresult72) #4, !srcloc !29
  br label %return

return:                                           ; preds = %while.end, %do.body51, %do.body38, %entry, %do.body65
  %retval.0 = phi i64 [ %20, %do.body65 ], [ 0, %entry ], [ %14, %do.body38 ], [ %17, %do.body51 ], [ %11, %while.end ]
  ret i64 %retval.0
}